target datalayout = "e-m:e-p270:32:32-p271:32:32-p272:64:64-i64:64-i128:128-f80:128-n8:16:32:64-S128"
target triple = "x86_64-pc-linux-gnu"

%struct.evp_pkey_ctx_st = type { i32, ptr, ptr, ptr, ptr, %union.anon, %struct.anon.4, ptr, ptr, ptr, i32, i32, ptr, ptr, ptr, ptr, ptr, i8, ptr }
%union.anon = type { %struct.anon.0 }
%struct.anon.0 = type { ptr, ptr }
%struct.anon.4 = type { ptr, ptr, i64, i8 }
%struct.CRYPTO_REF_COUNT = type { i32 }
%struct.anon.3 = type { ptr, ptr }
%struct.evp_kem_st = type { i32, ptr, ptr, ptr, %struct.CRYPTO_REF_COUNT, ptr, ptr, ptr, ptr, ptr, ptr, ptr, ptr, ptr, ptr, ptr, ptr, ptr }

@.str = private unnamed_addr constant [28 x i8] c"../openssl/crypto/evp/kem.c\00", align 1
@__func__.EVP_PKEY_encapsulate = private unnamed_addr constant [21 x i8] c"EVP_PKEY_encapsulate\00", align 1

; Function Attrs: nounwind uwtable
define i32 @EVP_PKEY_encapsulate(ptr noundef %0, ptr noundef %1, ptr noundef %2, ptr noundef %3, ptr noundef %4) #0 {
  %6 = alloca i32, align 4
  %7 = alloca ptr, align 8
  %8 = alloca ptr, align 8
  %9 = alloca ptr, align 8
  %10 = alloca ptr, align 8
  %11 = alloca ptr, align 8
  store ptr %0, ptr %7, align 8, !tbaa !3
  store ptr %1, ptr %8, align 8, !tbaa !21
  store ptr %2, ptr %9, align 8, !tbaa !57
  store ptr %3, ptr %10, align 8, !tbaa !21
  store ptr %4, ptr %11, align 8, !tbaa !57
  %12 = load ptr, ptr %7, align 8, !tbaa !3
  %13 = icmp eq ptr %12, null
  br i1 %13, label %14, label %15

14:                                               ; preds = %5
  store i32 0, ptr %6, align 4
  br label %51

15:                                               ; preds = %5
  %16 = load ptr, ptr %7, align 8, !tbaa !3
  %17 = getelementptr inbounds nuw %struct.evp_pkey_ctx_st, ptr %16, i32 0, i32 0
  %18 = load i32, ptr %17, align 8, !tbaa !32
  %19 = icmp ne i32 %18, 4096
  br i1 %19, label %20, label %21

20:                                               ; preds = %15
  call void @ERR_new()
  call void @ERR_set_debug(ptr noundef @.str, i32 noundef 233, ptr noundef @__func__.EVP_PKEY_encapsulate)
  call void (i32, i32, ptr, ...) @ERR_set_error(i32 noundef 6, i32 noundef 151, ptr noundef null)
  store i32 -1, ptr %6, align 4
  br label %51

21:                                               ; preds = %15
  %22 = load ptr, ptr %7, align 8, !tbaa !3
  %23 = getelementptr inbounds nuw %struct.evp_pkey_ctx_st, ptr %22, i32 0, i32 5
  %24 = getelementptr inbounds nuw %struct.anon.3, ptr %23, i32 0, i32 1
  %25 = load ptr, ptr %24, align 8, !tbaa !49
  %26 = icmp eq ptr %25, null
  br i1 %26, label %27, label %28

27:                                               ; preds = %21
  call void @ERR_new()
  call void @ERR_set_debug(ptr noundef @.str, i32 noundef 238, ptr noundef @__func__.EVP_PKEY_encapsulate)
  call void (i32, i32, ptr, ...) @ERR_set_error(i32 noundef 6, i32 noundef 150, ptr noundef null)
  store i32 -2, ptr %6, align 4
  br label %51

28:                                               ; preds = %21
  %29 = load ptr, ptr %8, align 8, !tbaa !21
  %30 = icmp ne ptr %29, null
  br i1 %30, label %31, label %35

31:                                               ; preds = %28
  %32 = load ptr, ptr %10, align 8, !tbaa !21
  %33 = icmp eq ptr %32, null
  br i1 %33, label %34, label %35

34:                                               ; preds = %31
  store i32 0, ptr %6, align 4
  br label %51

35:                                               ; preds = %31, %28
  %36 = load ptr, ptr %7, align 8, !tbaa !3
  %37 = getelementptr inbounds nuw %struct.evp_pkey_ctx_st, ptr %36, i32 0, i32 5
  %38 = getelementptr inbounds nuw %struct.anon.3, ptr %37, i32 0, i32 0
  %39 = load ptr, ptr %38, align 8, !tbaa !49
  %40 = getelementptr inbounds nuw %struct.evp_kem_st, ptr %39, i32 0, i32 7
  %41 = load ptr, ptr %40, align 8, !tbaa !59
  %42 = load ptr, ptr %7, align 8, !tbaa !3
  %43 = getelementptr inbounds nuw %struct.evp_pkey_ctx_st, ptr %42, i32 0, i32 5
  %44 = getelementptr inbounds nuw %struct.anon.3, ptr %43, i32 0, i32 1
  %45 = load ptr, ptr %44, align 8, !tbaa !49
  %46 = load ptr, ptr %8, align 8, !tbaa !21
  %47 = load ptr, ptr %9, align 8, !tbaa !57
  %48 = load ptr, ptr %10, align 8, !tbaa !21
  %49 = load ptr, ptr %11, align 8, !tbaa !57
  %50 = call i32 %41(ptr noundef %45, ptr noundef %46, ptr noundef %47, ptr noundef %48, ptr noundef %49)
  store i32 %50, ptr %6, align 4
  br label %51

51:                                               ; preds = %35, %34, %27, %20, %14
  %52 = load i32, ptr %6, align 4
  ret i32 %52
}