; Function Attrs: nounwind uwtable
define i32 @EVP_PKEY_encapsulate(ptr noundef readonly captures(address_is_null) %0, ptr noundef %1, ptr noundef %2, ptr noundef %3, ptr noundef %4) local_unnamed_addr #0 {
  %6 = icmp eq ptr %0, null
  br i1 %6, label %24, label %7

7:                                                ; preds = %5
  %8 = load i32, ptr %0, align 8, !tbaa !20
  %.not = icmp eq i32 %8, 4096
  br i1 %.not, label %10, label %9

9:                                                ; preds = %7
  tail call void @ERR_new() #5
  tail call void @ERR_set_debug(ptr noundef nonnull @.str, i32 noundef 233, ptr noundef nonnull @__func__.EVP_PKEY_encapsulate) #5
  tail call void (i32, i32, ptr, ...) @ERR_set_error(i32 noundef 6, i32 noundef 151, ptr noundef null) #5
  br label %24

10:                                               ; preds = %7
  %11 = getelementptr inbounds nuw i8, ptr %0, i64 40
  %12 = getelementptr inbounds nuw i8, ptr %0, i64 48
  %13 = load ptr, ptr %12, align 8, !tbaa !42
  %14 = icmp eq ptr %13, null
  br i1 %14, label %15, label %16

15:                                               ; preds = %10
  tail call void @ERR_new() #5
  tail call void @ERR_set_debug(ptr noundef nonnull @.str, i32 noundef 238, ptr noundef nonnull @__func__.EVP_PKEY_encapsulate) #5
  tail call void (i32, i32, ptr, ...) @ERR_set_error(i32 noundef 6, i32 noundef 150, ptr noundef null) #5
  br label %24

16:                                               ; preds = %10
  %17 = icmp ne ptr %1, null
  %18 = icmp eq ptr %3, null
  %or.cond = and i1 %17, %18
  br i1 %or.cond, label %24, label %19

19:                                               ; preds = %16
  %20 = load ptr, ptr %11, align 8, !tbaa !42
  %21 = getelementptr inbounds nuw i8, ptr %20, i64 56
  %22 = load ptr, ptr %21, align 8, !tbaa !48
  %23 = tail call i32 %22(ptr noundef nonnull %13, ptr noundef %1, ptr noundef %2, ptr noundef %3, ptr noundef %4) #5
  br label %24

24:                                               ; preds = %16, %5, %19, %15, %9
  %.0 = phi i32 [ -1, %9 ], [ -2, %15 ], [ %23, %19 ], [ 0, %5 ], [ 0, %16 ]
  ret i32 %.0
}